; Function Attrs: nounwind uwtable
define ptr @l_IO_Error_otherErrorToString(ptr noundef %0, i32 noundef %1, ptr noundef %2) local_unnamed_addr #0 {
  %4 = ptrtoint ptr %2 to i64
  %5 = and i64 %4, 1
  %.not.i47 = icmp eq i64 %5, 0
  br i1 %.not.i47, label %9, label %6

6:                                                ; preds = %3
  %7 = lshr i64 %4, 1
  %8 = trunc i64 %7 to i32
  br label %lean_obj_tag.exit

9:                                                ; preds = %3
  %10 = getelementptr i8, ptr %2, i64 4
  %.val.i = load i32, ptr %10, align 4
  %11 = lshr i32 %.val.i, 24
  br label %lean_obj_tag.exit

lean_obj_tag.exit:                                ; preds = %6, %9
  %.0.i = phi i32 [ %8, %6 ], [ %11, %9 ]
  %12 = icmp eq i32 %.0.i, 0
  br i1 %12, label %13, label %33

13:                                               ; preds = %lean_obj_tag.exit
  %14 = load ptr, ptr @l___private_Init_System_IOError_0__IO_Error_downCaseFirst___closed__1, align 8, !tbaa !9
  %15 = tail call ptr @l_String_modify(ptr noundef %0, ptr noundef nonnull inttoptr (i64 1 to ptr), ptr noundef %14) #4
  %16 = load ptr, ptr @l_IO_Error_fopenErrorToString___closed__1, align 8, !tbaa !9
  %17 = tail call ptr @lean_string_append(ptr noundef %15, ptr noundef %16) #4
  %18 = zext i32 %1 to i64
  %19 = shl nuw nsw i64 %18, 1
  %20 = or disjoint i64 %19, 1
  %21 = inttoptr i64 %20 to ptr
  %22 = tail call ptr @l___private_Init_Data_Repr_0__Nat_reprFast(ptr noundef nonnull %21) #4
  %23 = tail call ptr @lean_string_append(ptr noundef %17, ptr noundef %22) #4
  %24 = ptrtoint ptr %22 to i64
  %25 = and i64 %24, 1
  %.not53 = icmp eq i64 %25, 0
  br i1 %.not53, label %26, label %lean_dec.exit40

26:                                               ; preds = %13
  %27 = load i32, ptr %22, align 4, !tbaa !4
  %28 = icmp sgt i32 %27, 1
  br i1 %28, label %29, label %31, !prof !14

29:                                               ; preds = %26
  %30 = add nsw i32 %27, -1
  store i32 %30, ptr %22, align 4, !tbaa !4
  br label %lean_dec.exit40

31:                                               ; preds = %26
  %.not.i = icmp eq i32 %27, 0
  br i1 %.not.i, label %lean_dec.exit40, label %32

32:                                               ; preds = %31
  tail call void @lean_dec_ref_cold(ptr noundef nonnull %22) #4
  br label %lean_dec.exit40

33:                                               ; preds = %lean_obj_tag.exit
  %34 = getelementptr inbounds nuw i8, ptr %2, i64 8
  %35 = load ptr, ptr %34, align 8, !tbaa !9
  %36 = ptrtoint ptr %35 to i64
  %37 = and i64 %36, 1
  %.not = icmp eq i64 %37, 0
  br i1 %.not, label %38, label %lean_inc.exit

38:                                               ; preds = %33
  %.val.i48 = load i32, ptr %35, align 4, !tbaa !4
  %39 = icmp sgt i32 %.val.i48, 0
  br i1 %39, label %40, label %42, !prof !14

40:                                               ; preds = %38
  %41 = add nuw i32 %.val.i48, 1
  store i32 %41, ptr %35, align 4, !tbaa !4
  br label %lean_inc.exit

42:                                               ; preds = %38
  %.not.i49 = icmp eq i32 %.val.i48, 0
  br i1 %.not.i49, label %lean_inc.exit, label %43

43:                                               ; preds = %42
  tail call void @lean_inc_ref_cold(ptr noundef nonnull %35) #4
  br label %lean_inc.exit

lean_inc.exit:                                    ; preds = %43, %42, %40, %33
  br i1 %.not.i47, label %44, label %lean_dec.exit39

44:                                               ; preds = %lean_inc.exit
  %45 = load i32, ptr %2, align 4, !tbaa !4
  %46 = icmp sgt i32 %45, 1
  br i1 %46, label %47, label %49, !prof !14

47:                                               ; preds = %44
  %48 = add nsw i32 %45, -1
  store i32 %48, ptr %2, align 4, !tbaa !4
  br label %lean_dec.exit39

49:                                               ; preds = %44
  %.not.i41 = icmp eq i32 %45, 0
  br i1 %.not.i41, label %lean_dec.exit39, label %50

50:                                               ; preds = %49
  tail call void @lean_dec_ref_cold(ptr noundef nonnull %2) #4
  br label %lean_dec.exit39

lean_dec.exit39:                                  ; preds = %50, %49, %47, %lean_inc.exit
  %51 = load ptr, ptr @l___private_Init_System_IOError_0__IO_Error_downCaseFirst___closed__1, align 8, !tbaa !9
  %52 = tail call ptr @l_String_modify(ptr noundef %0, ptr noundef nonnull inttoptr (i64 1 to ptr), ptr noundef %51) #4
  %53 = load ptr, ptr @l_IO_Error_fopenErrorToString___closed__1, align 8, !tbaa !9
  %54 = tail call ptr @lean_string_append(ptr noundef %52, ptr noundef %53) #4
  %55 = zext i32 %1 to i64
  %56 = shl nuw nsw i64 %55, 1
  %57 = or disjoint i64 %56, 1
  %58 = inttoptr i64 %57 to ptr
  %59 = tail call ptr @l___private_Init_Data_Repr_0__Nat_reprFast(ptr noundef nonnull %58) #4
  %60 = tail call ptr @lean_string_append(ptr noundef %54, ptr noundef %59) #4
  %61 = ptrtoint ptr %59 to i64
  %62 = and i64 %61, 1
  %.not51 = icmp eq i64 %62, 0
  br i1 %.not51, label %63, label %lean_dec.exit38

63:                                               ; preds = %lean_dec.exit39
  %64 = load i32, ptr %59, align 4, !tbaa !4
  %65 = icmp sgt i32 %64, 1
  br i1 %65, label %66, label %68, !prof !14

66:                                               ; preds = %63
  %67 = add nsw i32 %64, -1
  store i32 %67, ptr %59, align 4, !tbaa !4
  br label %lean_dec.exit38

68:                                               ; preds = %63
  %.not.i43 = icmp eq i32 %64, 0
  br i1 %.not.i43, label %lean_dec.exit38, label %69

69:                                               ; preds = %68
  tail call void @lean_dec_ref_cold(ptr noundef nonnull %59) #4
  br label %lean_dec.exit38

lean_dec.exit38:                                  ; preds = %69, %68, %66, %lean_dec.exit39
  %70 = load ptr, ptr @l_IO_Error_fopenErrorToString___closed__3, align 8, !tbaa !9
  %71 = tail call ptr @lean_string_append(ptr noundef %60, ptr noundef %70) #4
  %72 = tail call ptr @l_String_modify(ptr noundef %35, ptr noundef nonnull inttoptr (i64 1 to ptr), ptr noundef %51) #4
  %73 = tail call ptr @lean_string_append(ptr noundef %71, ptr noundef %72) #4
  %74 = ptrtoint ptr %72 to i64
  %75 = and i64 %74, 1
  %.not52 = icmp eq i64 %75, 0
  br i1 %.not52, label %76, label %lean_dec.exit40

76:                                               ; preds = %lean_dec.exit38
  %77 = load i32, ptr %72, align 4, !tbaa !4
  %78 = icmp sgt i32 %77, 1
  br i1 %78, label %79, label %81, !prof !14

79:                                               ; preds = %76
  %80 = add nsw i32 %77, -1
  store i32 %80, ptr %72, align 4, !tbaa !4
  br label %lean_dec.exit40

81:                                               ; preds = %76
  %.not.i45 = icmp eq i32 %77, 0
  br i1 %.not.i45, label %lean_dec.exit40, label %82

82:                                               ; preds = %81
  tail call void @lean_dec_ref_cold(ptr noundef nonnull %72) #4
  br label %lean_dec.exit40

lean_dec.exit40:                                  ; preds = %lean_dec.exit38, %79, %81, %82, %13, %29, %31, %32
  %.sink = phi ptr [ %23, %32 ], [ %23, %31 ], [ %23, %29 ], [ %23, %13 ], [ %73, %82 ], [ %73, %81 ], [ %73, %79 ], [ %73, %lean_dec.exit38 ]
  %83 = load ptr, ptr @l_IO_Error_otherErrorToString___closed__1, align 8, !tbaa !9
  %84 = tail call ptr @lean_string_append(ptr noundef %.sink, ptr noundef %83) #4
  ret ptr %84
}